; Function Attrs: nounwind uwtable
define ptr @l_Lean_MVarId_refl___lambda__1(ptr noundef %0, ptr noundef %1, ptr noundef %2, ptr noundef %3, ptr readnone captures(none) %4, ptr noundef %5, ptr noundef %6, ptr noundef %7, ptr noundef %8, ptr noundef %9) local_unnamed_addr #0 {
  %11 = tail call ptr @l_Lean_Expr_getAppFn(ptr noundef %0) #4
  %12 = tail call ptr @l_Lean_Expr_constLevels_x21(ptr noundef %11) #4
  %13 = ptrtoint ptr %11 to i64
  %14 = and i64 %13, 1
  %.not = icmp eq i64 %14, 0
  br i1 %.not, label %15, label %lean_dec.exit

15:                                               ; preds = %10
  %16 = load i32, ptr %11, align 4, !tbaa !4
  %17 = icmp sgt i32 %16, 1
  br i1 %17, label %18, label %20, !prof !9

18:                                               ; preds = %15
  %19 = add nsw i32 %16, -1
  store i32 %19, ptr %11, align 4, !tbaa !4
  br label %lean_dec.exit

20:                                               ; preds = %15
  %.not.i20 = icmp eq i32 %16, 0
  br i1 %.not.i20, label %lean_dec.exit, label %21

21:                                               ; preds = %20
  tail call void @lean_dec_ref_cold(ptr noundef nonnull %11) #4
  br label %lean_dec.exit

lean_dec.exit:                                    ; preds = %21, %20, %18, %10
  %22 = tail call ptr @l_Lean_Expr_appFn_x21(ptr noundef %1) #4
  %23 = tail call ptr @l_Lean_Expr_appArg_x21(ptr noundef %22) #4
  %24 = ptrtoint ptr %22 to i64
  %25 = and i64 %24, 1
  %.not22 = icmp eq i64 %25, 0
  br i1 %.not22, label %26, label %lean_dec.exit19

26:                                               ; preds = %lean_dec.exit
  %27 = load i32, ptr %22, align 4, !tbaa !4
  %28 = icmp sgt i32 %27, 1
  br i1 %28, label %29, label %31, !prof !9

29:                                               ; preds = %26
  %30 = add nsw i32 %27, -1
  store i32 %30, ptr %22, align 4, !tbaa !4
  br label %lean_dec.exit19

31:                                               ; preds = %26
  %.not.i = icmp eq i32 %27, 0
  br i1 %.not.i, label %lean_dec.exit19, label %32

32:                                               ; preds = %31
  tail call void @lean_dec_ref_cold(ptr noundef nonnull %22) #4
  br label %lean_dec.exit19

lean_dec.exit19:                                  ; preds = %32, %31, %29, %lean_dec.exit
  %33 = load ptr, ptr @l_Lean_MVarId_refl___lambda__1___closed__3, align 8, !tbaa !10
  %34 = tail call ptr @l_Lean_Expr_const___override(ptr noundef %33, ptr noundef %12) #4
  %35 = tail call ptr @l_Lean_mkAppB(ptr noundef %34, ptr noundef %23, ptr noundef %2) #4
  %36 = tail call ptr @l_Lean_MVarId_assign___at_Lean_Meta_getLevel___spec__1(ptr noundef %3, ptr noundef %35, ptr noundef %5, ptr noundef %6, ptr noundef %7, ptr noundef %8, ptr noundef %9) #4
  ret ptr %36
}